(imetric
Metric
p0
(dp1
S'R4'
p2
(lp3
(lp4
(lp5
(lp6
ccopy_reg
_reconstructor
p7
(csympy.core.numbers
Zero
p8
c__builtin__
object
p9
Ntp10
Rp11
(dp12
S'q'
p13
I1
sS'p'
p14
I0
sS'_a_inprogress'
p15
(lp16
sS'_mhash'
p17
I-3157700006611994746
sS'_assume_type_keys'
p18
NsS'_args'
p19
(tsS'_assumptions'
p20
(dp21
S'nonpositive'
p22
I01
sS'unbounded'
p23
I00
sS'zero'
p24
I01
sS'odd'
p25
I00
sS'even'
p26
I01
sS'commutative'
p27
I01
sS'positive'
p28
I00
sS'noninteger'
p29
I00
sS'negative'
p30
I00
sS'complex'
p31
I01
sS'rational'
p32
I01
sS'finite'
p33
I00
sS'real'
p34
I01
sS'nonzero'
p35
I00
sS'comparable'
p36
I01
sS'irrational'
p37
I00
sS'composite'
p38
I00
sS'bounded'
p39
I01
sS'integer'
p40
I01
sS'imaginary'
p41
I00
sS'prime'
p42
I00
sS'nonnegative'
p43
I01
sS'infinitesimal'
p44
I01
ssbag11
ag11
ag11
aa(lp45
g11
ag11
ag11
ag11
aa(lp46
g11
ag11
ag11
ag11
aa(lp47
g11
ag11
ag11
ag11
aaa(lp48
(lp49
g11
ag7
(csympy.core.power
Pow
p50
g9
Ntp51
Rp52
(dp53
g15
(lp54
sg18
Nsg19
(g7
(csympy.core.symbol
Symbol
p55
g9
Ntp56
Rp57
(dp58
g15
(lp59
sS'name'
p60
S'z'
p61
sg18
c__builtin__
frozenset
p62
((lp63
S'real'
p64
aS'nonzero'
p65
aS'commutative'
p66
aS'nonpositive'
p67
aS'positive'
p68
aS'negative'
p69
ag43
aS'zero'
p70
ag31
aS'imaginary'
p71
atp72
Rp73
sg19
(tsg20
(dp74
g64
I01
sg65
I01
sS'comparable'
p75
I00
sg66
I01
sg67
I00
sg68
I01
sg69
I00
sg43
I01
sg70
I00
sg31
I01
sS'integer'
p76
Nsg71
I00
ssS'is_commutative'
p77
I01
sg17
I1271321771744059877
sbg7
(csympy.core.numbers
Integer
p78
g9
Ntp79
Rp80
(dp81
g13
I1
sg14
I-4
sg15
(lp82
sg17
I-6250422013838652581
sg18
Nsg19
(tsg20
(dp83
g34
I01
sg65
I01
sg36
I01
sg27
I01
sg22
I01
sS'composite'
p84
I00
sg23
I00
sS'noninteger'
p85
I00
sg31
I01
sS'negative'
p86
I01
sS'nonnegative'
p87
I00
sS'prime'
p88
I00
sS'zero'
p89
I00
sS'infinitesimal'
p90
I00
sg39
I01
sS'rational'
p91
I01
sg68
I00
sS'integer'
p92
I01
sg41
I00
sS'finite'
p93
I01
sS'irrational'
p94
I00
ssbtp95
sg20
(dp96
S'comparable'
p97
I00
ssg77
I01
sg17
I-5144579386560609692
sbag11
ag11
aa(lp98
g7
(csympy.core.mul
Mul
p99
g9
Ntp100
Rp101
(dp102
g15
(lp103
sg17
I7593973355957856038
sg18
Nsg19
(g7
(csympy.core.numbers
NegativeOne
p104
g9
Ntp105
Rp106
(dp107
g13
I1
sg14
I-1
sg15
(lp108
sg17
I7661115593229879962
sg18
Nsg19
(tsg20
(dp109
g22
I01
sg23
I00
sg89
I00
sS'odd'
p110
I01
sg65
I01
sg27
I01
sg68
I00
sg85
I00
sg86
I01
sg31
I01
sg91
I01
sg93
I01
sg34
I01
sS'even'
p111
I00
sg36
I01
sg94
I00
sg84
I00
sg39
I01
sg92
I01
sg41
I00
sg88
I00
sg87
I00
sg90
I00
ssbg52
tp112
sg20
(dp113
sg77
I01
sbag11
ag11
ag11
aa(lp114
g11
ag11
ag11
ag11
aa(lp115
g11
ag11
ag11
ag11
aaa(lp116
(lp117
g11
ag11
ag101
ag11
aa(lp118
g11
ag11
ag11
ag11
aa(lp119
g52
ag11
ag11
ag11
aa(lp120
g11
ag11
ag11
ag11
aaa(lp121
(lp122
g11
ag11
ag11
ag101
aa(lp123
g11
ag11
ag11
ag11
aa(lp124
g11
ag11
ag11
ag11
aa(lp125
g52
ag11
ag11
ag11
aaaa(lp126
(lp127
(lp128
g11
ag101
ag11
ag11
aa(lp129
g52
ag11
ag11
ag11
aa(lp130
g11
ag11
ag11
ag11
aa(lp131
g11
ag11
ag11
ag11
aaa(lp132
(lp133
g11
ag11
ag11
ag11
aa(lp134
g11
ag11
ag11
ag11
aa(lp135
g11
ag11
ag11
ag11
aa(lp136
g11
ag11
ag11
ag11
aaa(lp137
(lp138
g11
ag11
ag11
ag11
aa(lp139
g11
ag11
ag52
ag11
aa(lp140
g11
ag101
ag11
ag11
aa(lp141
g11
ag11
ag11
ag11
aaa(lp142
(lp143
g11
ag11
ag11
ag11
aa(lp144
g11
ag11
ag11
ag52
aa(lp145
g11
ag11
ag11
ag11
aa(lp146
g11
ag101
ag11
ag11
aaaa(lp147
(lp148
(lp149
g11
ag11
ag52
ag11
aa(lp150
g11
ag11
ag11
ag11
aa(lp151
g101
ag11
ag11
ag11
aa(lp152
g11
ag11
ag11
ag11
aaa(lp153
(lp154
g11
ag11
ag11
ag11
aa(lp155
g11
ag11
ag101
ag11
aa(lp156
g11
ag52
ag11
ag11
aa(lp157
g11
ag11
ag11
ag11
aaa(lp158
(lp159
g11
ag11
ag11
ag11
aa(lp160
g11
ag11
ag11
ag11
aa(lp161
g11
ag11
ag11
ag11
aa(lp162
g11
ag11
ag11
ag11
aaa(lp163
(lp164
g11
ag11
ag11
ag11
aa(lp165
g11
ag11
ag11
ag11
aa(lp166
g11
ag11
ag11
ag101
aa(lp167
g11
ag11
ag52
ag11
aaaa(lp168
(lp169
(lp170
g11
ag11
ag11
ag52
aa(lp171
g11
ag11
ag11
ag11
aa(lp172
g11
ag11
ag11
ag11
aa(lp173
g101
ag11
ag11
ag11
aaa(lp174
(lp175
g11
ag11
ag11
ag11
aa(lp176
g11
ag11
ag11
ag101
aa(lp177
g11
ag11
ag11
ag11
aa(lp178
g11
ag52
ag11
ag11
aaa(lp179
(lp180
g11
ag11
ag11
ag11
aa(lp181
g11
ag11
ag11
ag11
aa(lp182
g11
ag11
ag11
ag52
aa(lp183
g11
ag11
ag101
ag11
aaa(lp184
(lp185
g11
ag11
ag11
ag11
aa(lp186
g11
ag11
ag11
ag11
aa(lp187
g11
ag11
ag11
ag11
aa(lp188
g11
ag11
ag11
ag11
aaaasS'C'
p189
(lp190
(lp191
(lp192
(lp193
g11
ag11
ag11
ag11
aa(lp194
g11
ag11
ag11
ag11
aa(lp195
g11
ag11
ag11
ag11
aa(lp196
g11
ag11
ag11
ag11
aaa(lp197
(lp198
g11
ag11
ag11
ag11
aa(lp199
g11
ag11
ag11
ag11
aa(lp200
g11
ag11
ag11
ag11
aa(lp201
g11
ag11
ag11
ag11
aaa(lp202
(lp203
g11
ag11
ag11
ag11
aa(lp204
g11
ag11
ag11
ag11
aa(lp205
g11
ag11
ag11
ag11
aa(lp206
g11
ag11
ag11
ag11
aaa(lp207
(lp208
g11
ag11
ag11
ag11
aa(lp209
g11
ag11
ag11
ag11
aa(lp210
g11
ag11
ag11
ag11
aa(lp211
g11
ag11
ag11
ag11
aaaa(lp212
(lp213
(lp214
g11
ag11
ag11
ag11
aa(lp215
g11
ag11
ag11
ag11
aa(lp216
g11
ag11
ag11
ag11
aa(lp217
g11
ag11
ag11
ag11
aaa(lp218
(lp219
g11
ag11
ag11
ag11
aa(lp220
g11
ag11
ag11
ag11
aa(lp221
g11
ag11
ag11
ag11
aa(lp222
g11
ag11
ag11
ag11
aaa(lp223
(lp224
g11
ag11
ag11
ag11
aa(lp225
g11
ag11
ag11
ag11
aa(lp226
g11
ag11
ag11
ag11
aa(lp227
g11
ag11
ag11
ag11
aaa(lp228
(lp229
g11
ag11
ag11
ag11
aa(lp230
g11
ag11
ag11
ag11
aa(lp231
g11
ag11
ag11
ag11
aa(lp232
g11
ag11
ag11
ag11
aaaa(lp233
(lp234
(lp235
g11
ag11
ag11
ag11
aa(lp236
g11
ag11
ag11
ag11
aa(lp237
g11
ag11
ag11
ag11
aa(lp238
g11
ag11
ag11
ag11
aaa(lp239
(lp240
g11
ag11
ag11
ag11
aa(lp241
g11
ag11
ag11
ag11
aa(lp242
g11
ag11
ag11
ag11
aa(lp243
g11
ag11
ag11
ag11
aaa(lp244
(lp245
g11
ag11
ag11
ag11
aa(lp246
g11
ag11
ag11
ag11
aa(lp247
g11
ag11
ag11
ag11
aa(lp248
g11
ag11
ag11
ag11
aaa(lp249
(lp250
g11
ag11
ag11
ag11
aa(lp251
g11
ag11
ag11
ag11
aa(lp252
g11
ag11
ag11
ag11
aa(lp253
g11
ag11
ag11
ag11
aaaa(lp254
(lp255
(lp256
g11
ag11
ag11
ag11
aa(lp257
g11
ag11
ag11
ag11
aa(lp258
g11
ag11
ag11
ag11
aa(lp259
g11
ag11
ag11
ag11
aaa(lp260
(lp261
g11
ag11
ag11
ag11
aa(lp262
g11
ag11
ag11
ag11
aa(lp263
g11
ag11
ag11
ag11
aa(lp264
g11
ag11
ag11
ag11
aaa(lp265
(lp266
g11
ag11
ag11
ag11
aa(lp267
g11
ag11
ag11
ag11
aa(lp268
g11
ag11
ag11
ag11
aa(lp269
g11
ag11
ag11
ag11
aaa(lp270
(lp271
g11
ag11
ag11
ag11
aa(lp272
g11
ag11
ag11
ag11
aa(lp273
g11
ag11
ag11
ag11
aa(lp274
g11
ag11
ag11
ag11
aaaasS'g'
p275
g7
(csympy.matrices.matrices
Matrix
p276
g9
Ntp277
Rp278
(dp279
S'rows'
p280
I4
sS'cols'
p281
I4
sS'mat'
p282
(lp283
g7
(g50
g9
Ntp284
Rp285
(dp286
g15
(lp287
sg18
Nsg19
(g57
g7
(g78
g9
Ntp288
Rp289
(dp290
g13
I1
sg14
I-2
sg15
(lp291
sg17
I-6250424536232650227
sg18
Nsg19
(tsg20
(dp292
g34
I01
sg65
I01
sg36
I01
sg27
I01
sg22
I01
sg84
I00
sg23
I00
sg85
I00
sg31
I01
sg86
I01
sg87
I00
sg88
I00
sg89
I00
sg90
I00
sg39
I01
sg91
I01
sg68
I00
sg92
I01
sg41
I00
sg93
I01
sg94
I00
ssbtp293
sg20
(dp294
g64
I01
sg65
I01
sg97
I00
sg66
I01
sg67
I00
sg68
I01
sS'even'
p295
Nsg69
I00
sg43
I01
sg70
I00
sg31
I01
sg76
Nsg71
I00
sS'odd'
p296
NsS'irrational'
p297
Nssg77
I01
sg17
I-7361467779090877078
sbag11
ag11
ag11
ag11
ag7
(g99
g9
Ntp298
Rp299
(dp300
g15
(lp301
sg17
I-7843374911728022048
sg18
Nsg19
(g106
g285
tp302
sg20
g113
sg77
I01
sbag11
ag11
ag11
ag11
ag285
ag11
ag11
ag11
ag11
ag285
asbsS'R2'
p303
(lp304
(lp305
g7
(g99
g9
Ntp306
Rp307
(dp308
g15
(lp309
sg17
I-7771581506764228060
sg18
Nsg19
(g7
(g78
g9
Ntp310
Rp311
(dp312
g13
I1
sg14
I-3
sg15
(lp313
sg17
I-6250423275033321306
sg18
Nsg19
(tsg20
(dp314
g34
I01
sg65
I01
sg36
I01
sg27
I01
sg22
I01
sg84
I00
sg23
I00
sg85
I00
sg31
I01
sg86
I01
sg87
I00
sg88
I00
sg89
I00
sg90
I00
sg39
I01
sg91
I01
sg68
I00
sg92
I01
sg41
I00
sg93
I01
sg94
I00
ssbg285
tp315
sg20
g113
sg77
I01
sbag11
ag11
ag11
aa(lp316
g11
ag7
(g99
g9
Ntp317
Rp318
(dp319
g15
(lp320
sg17
I-4543952594687244026
sg18
Nsg19
(g7
(g78
g9
Ntp321
Rp322
(dp323
g13
I1
sg14
I3
sg15
(lp324
sg17
I6250420752641848820
sg18
Nsg19
(tsg20
(dp325
g34
I01
sg65
I01
sg36
I01
sg27
I01
sg67
I00
sg23
I00
sg85
I00
sg31
I01
sg43
I01
sg89
I00
sg90
I00
sg39
I01
sg69
I00
sg91
I01
sg68
I01
sg92
I01
sg41
I00
sg93
I01
sg94
I00
ssbg285
tp326
sg20
(dp327
g97
I00
ssg77
I01
sbag11
ag11
aa(lp328
g11
ag11
ag307
ag11
aa(lp329
g11
ag11
ag11
ag307
aasS'R'
p330
g7
(g78
g9
Ntp331
Rp332
(dp333
g13
I1
sg14
I-12
sg15
(lp334
sg17
I-6250432103414643165
sg18
Nsg19
(tsg20
(dp335
g34
I01
sg65
I01
sg36
I01
sg27
I01
sg90
I00
sg23
I00
sg85
I00
sg89
I00
sg31
I01
sg39
I01
sg91
I01
sg92
I01
sg41
I00
sg93
I01
sg94
I00
ssbsS'CS'
p336
(lp337
(lp338
(lp339
g7
(g99
g9
Ntp340
Rp341
(dp342
g15
(lp343
sg17
I6432001389209517179
sg18
Nsg19
(g106
g7
(g50
g9
Ntp344
Rp345
(dp346
g15
(lp347
sg18
Nsg19
(g57
g311
tp348
sg20
(dp349
g97
I00
ssg77
I01
sg17
I-6257445575032252761
sbtp350
sg20
g113
sg77
I01
sbag11
ag11
ag11
aa(lp351
g11
ag341
ag11
ag11
aa(lp352
g11
ag11
ag345
ag11
aa(lp353
g11
ag11
ag11
ag345
aaa(lp354
(lp355
g11
ag345
ag11
ag11
aa(lp356
g345
ag11
ag11
ag11
aa(lp357
g11
ag11
ag11
ag11
aa(lp358
g11
ag11
ag11
ag11
aaa(lp359
(lp360
g11
ag11
ag341
ag11
aa(lp361
g11
ag11
ag11
ag11
aa(lp362
g341
ag11
ag11
ag11
aa(lp363
g11
ag11
ag11
ag11
aaa(lp364
(lp365
g11
ag11
ag11
ag341
aa(lp366
g11
ag11
ag11
ag11
aa(lp367
g11
ag11
ag11
ag11
aa(lp368
g341
ag11
ag11
ag11
aaasS'x'
p369
(lp370
g57
ag7
(g55
g9
Ntp371
Rp372
(dp373
g15
(lp374
sg60
S't'
p375
sg18
Nsg19
(tsg20
(dp376
g75
I00
ssg77
I01
sg17
I4904675791785725879
sbag7
(g55
g9
Ntp377
Rp378
(dp379
g15
(lp380
sg60
S'x1'
p381
sg18
Nsg19
(tsg20
g376
sg77
I01
sg17
I-4415447792105516003
sbag7
(g55
g9
Ntp382
Rp383
(dp384
g15
(lp385
sg60
S'x2'
p386
sg18
Nsg19
(tsg20
g376
sg77
I01
sg17
I-4415447792106681052
sbasS'ginv'
p387
g7
(g276
g9
Ntp388
Rp389
(dp390
g280
I4
sg281
I4
sg282
(lp391
g7
(g50
g9
Ntp392
Rp393
(dp394
g15
(lp395
sg18
Nsg19
(g57
g7
(g78
g9
Ntp396
Rp397
(dp398
g13
I1
sg14
I2
sg15
(lp399
sg17
I6250422013836517545
sg18
Nsg19
(tsg20
(dp400
g34
I01
sg65
I01
sg36
I01
sg27
I01
sg67
I00
sg23
I00
sg85
I00
sg31
I01
sg43
I01
sg89
I00
sg90
I00
sg39
I01
sg69
I00
sg91
I01
sg68
I01
sg92
I01
sg41
I00
sg93
I01
sg94
I00
ssbtp401
sg20
(dp402
sg77
I01
sg17
I5144576987403360230
sbag11
ag11
ag11
ag11
ag7
(g99
g9
Ntp403
Rp404
(dp405
g15
(lp406
sg17
I-5258839781090637644
sg18
Nsg19
(g106
g393
tp407
sg20
g113
sg77
I01
sbag11
ag11
ag11
ag11
ag393
ag11
ag11
ag11
ag11
ag393
asbsb.