(imetric
Metric
p0
(dp1
S'R4'
p2
(lp3
(lp4
(lp5
(lp6
ccopy_reg
_reconstructor
p7
(csympy.core.numbers
Zero
p8
c__builtin__
object
p9
Ntp10
Rp11
(dp12
S'q'
p13
I1
sS'p'
p14
I0
sS'_a_inprogress'
p15
(lp16
sS'_mhash'
p17
I-3157700006611994746
sS'_assume_type_keys'
p18
NsS'_args'
p19
(tsS'_assumptions'
p20
(dp21
S'nonpositive'
p22
I01
sS'unbounded'
p23
I00
sS'zero'
p24
I01
sS'odd'
p25
I00
sS'even'
p26
I01
sS'commutative'
p27
I01
sS'positive'
p28
I00
sS'noninteger'
p29
I00
sS'negative'
p30
I00
sS'complex'
p31
I01
sS'rational'
p32
I01
sS'finite'
p33
I00
sS'real'
p34
I01
sS'nonzero'
p35
I00
sS'comparable'
p36
I01
sS'irrational'
p37
I00
sS'composite'
p38
I00
sS'bounded'
p39
I01
sS'integer'
p40
I01
sS'imaginary'
p41
I00
sS'prime'
p42
I00
sS'nonnegative'
p43
I01
sS'infinitesimal'
p44
I01
ssbag11
ag11
ag11
aa(lp45
g11
ag11
ag11
ag11
aa(lp46
g11
ag11
ag11
ag11
aa(lp47
g11
ag11
ag11
ag11
aaa(lp48
(lp49
g11
ag7
(csympy.core.mul
Mul
p50
g9
Ntp51
Rp52
(dp53
g15
(lp54
sg17
I-952543500977410566
sg18
Nsg19
(g7
(csympy.core.power
Pow
p55
g9
Ntp56
Rp57
(dp58
g15
(lp59
sg18
Nsg19
(g7
(csympy.core.symbol
Symbol
p60
g9
Ntp61
Rp62
(dp63
g15
(lp64
sS'name'
p65
S'z'
p66
sg18
c__builtin__
frozenset
p67
((lp68
S'real'
p69
aS'nonzero'
p70
aS'commutative'
p71
aS'nonpositive'
p72
aS'positive'
p73
aS'negative'
p74
ag43
aS'zero'
p75
ag31
aS'imaginary'
p76
atp77
Rp78
sg19
(tsg20
(dp79
g69
I01
sg70
I01
sS'comparable'
p80
I00
sg71
I01
sg72
I00
sg73
I01
sg74
I00
sg43
I01
sg75
I00
sg31
I01
sS'bounded'
p81
NsS'integer'
p82
Nsg76
I00
ssS'is_commutative'
p83
I01
sg17
I1271321771744059877
sbg7
(csympy.core.numbers
Integer
p84
g9
Ntp85
Rp86
(dp87
g13
I1
sg14
I-4
sg15
(lp88
sg17
I-6250422013838652581
sg18
Nsg19
(tsg20
(dp89
g34
I01
sg70
I01
sg36
I01
sg27
I01
sg22
I01
sS'composite'
p90
I00
sg23
I00
sS'noninteger'
p91
I00
sg31
I01
sS'negative'
p92
I01
sS'nonnegative'
p93
I00
sS'prime'
p94
I00
sS'zero'
p95
I00
sS'infinitesimal'
p96
I00
sg39
I01
sS'rational'
p97
I01
sg73
I00
sS'integer'
p98
I01
sg41
I00
sS'finite'
p99
I01
sS'irrational'
p100
I00
ssbtp101
sg20
(dp102
S'comparable'
p103
I00
ssg83
I01
sg17
I-5144579386560609692
sbg7
(csympy.core.add
Add
p104
g9
Ntp105
Rp106
(dp107
g15
(lp108
sg17
I-1884347524711442322
sg18
Nsg19
(g7
(csympy.core.numbers
One
p109
g9
Ntp110
Rp111
(dp112
g13
I1
sg14
I1
sg15
(lp113
sg17
I-237126060543571952
sg18
Nsg19
(tsg20
(dp114
S'prime'
p115
I01
sg69
I01
sg36
I01
sg99
I01
sg27
I01
sg96
I00
sS'nonpositive'
p116
I00
sS'composite'
p117
I00
sS'positive'
p118
I01
sS'noninteger'
p119
I00
sS'negative'
p120
I00
sg43
I01
sS'zero'
p121
I00
sS'complex'
p122
I01
sg39
I01
sg32
I01
sg23
I00
sg40
I01
sS'imaginary'
p123
I00
sg70
I01
sS'irrational'
p124
I00
ssbg7
(g50
g9
Ntp125
Rp126
(dp127
g15
(lp128
sg17
I-5121512360890947879
sg18
Nsg19
(g7
(csympy.core.numbers
NegativeOne
p129
g9
Ntp130
Rp131
(dp132
g13
I1
sg14
I-1
sg15
(lp133
sg17
I7661115593229879962
sg18
Nsg19
(tsg20
(dp134
g22
I01
sg23
I00
sg95
I00
sS'odd'
p135
I01
sg70
I01
sg27
I01
sg73
I00
sg91
I00
sg92
I01
sg31
I01
sg97
I01
sg99
I01
sg34
I01
sS'even'
p136
I00
sg36
I01
sg100
I00
sg90
I00
sg39
I01
sg98
I01
sg41
I00
sg94
I00
sg93
I00
sg96
I00
ssbg7
(g55
g9
Ntp137
Rp138
(dp139
g15
(lp140
sg18
Nsg19
(g62
g7
(g84
g9
Ntp141
Rp142
(dp143
g13
I1
sg14
I3
sg15
(lp144
sg17
I6250420752641848820
sg18
Nsg19
(tsg20
(dp145
g34
I01
sg70
I01
sg36
I01
sg27
I01
sg72
I00
sg136
I00
sg23
I00
sg91
I00
sg31
I01
sg43
I01
sg95
I00
sg96
I00
sg39
I01
sg74
I00
sg97
I01
sg73
I01
sg98
I01
sg41
I00
sg99
I01
sg135
I01
sg100
I00
ssbtp146
sg20
(dp147
S'real'
p148
I01
sg70
I01
sg103
I00
sg27
I01
sg72
I00
sg73
I01
sg74
I00
sg43
I01
sg75
I00
sg31
I01
sg81
NsS'unbounded'
p149
Nsg41
I00
ssg83
I01
sg17
I3914135033089382249
sbtp150
sg20
(dp151
g148
I01
sg94
I00
sg103
I00
sg27
I01
sg22
I01
sg90
I00
sg73
I00
sS'negative'
p152
I01
sg93
I00
sS'zero'
p153
I00
sg31
I01
sg81
Nsg149
Nsg41
I00
sg70
I01
ssg83
I01
sbtp154
sg20
(dp155
g148
I01
sg103
I00
sg27
I01
sS'nonpositive'
p156
Nsg73
Nsg152
NsS'nonnegative'
p157
Nsg31
I01
sg41
I00
ssg83
I01
sbtp158
sg20
(dp159
g103
I00
ssg83
I01
sbag11
ag11
aa(lp160
g7
(g50
g9
Ntp161
Rp162
(dp163
g15
(lp164
sg17
I467270495692587972
sg18
Nsg19
(g57
g7
(g104
g9
Ntp165
Rp166
(dp167
g15
(lp168
sg17
I-858197050261428344
sg18
Nsg19
(g131
g138
tp169
sg20
(dp170
g148
I01
sg103
I00
sg27
I01
sg156
Nsg73
Nsg152
Nsg157
Nsg31
I01
sg41
I00
ssg83
I01
sbtp171
sg20
(dp172
g103
I00
ssg83
I01
sbag11
ag11
ag11
aa(lp173
g11
ag11
ag11
ag11
aa(lp174
g11
ag11
ag11
ag11
aaa(lp175
(lp176
g11
ag11
ag7
(g50
g9
Ntp177
Rp178
(dp179
g15
(lp180
sg17
I-2808505678116757912
sg18
Nsg19
(g7
(csympy.core.numbers
Half
p181
g9
Ntp182
Rp183
(dp184
g13
I2
sg14
I1
sg15
(lp185
sg18
Nsg17
I-5026320711726984031
sg19
(tsg20
(dp186
g34
I01
sS'even'
p187
I00
sg36
I01
sg100
I00
sg72
I00
sg90
I00
sg23
I00
sg74
I00
sS'zero'
p188
I00
sg39
I01
sS'integer'
p189
I00
sg41
I00
sg135
I00
sS'nonzero'
p190
I01
sg27
I01
sg94
I00
sS'noninteger'
p191
I01
sg31
I01
sg43
I01
sg96
I00
sg97
I01
sg73
I01
sg99
I01
ssbg57
g7
(g55
g9
Ntp192
Rp193
(dp194
g15
(lp195
sg18
Nsg19
(g166
g131
tp196
sg20
(dp197
g103
I00
ssg83
I01
sg17
I-5124205673952105470
sbg7
(g104
g9
Ntp198
Rp199
(dp200
g15
(lp201
sg17
I9110393564831681307
sg18
Nsg19
(g7
(g84
g9
Ntp202
Rp203
(dp204
g13
I1
sg14
I2
sg15
(lp205
sg17
I6250422013836517545
sg18
Nsg19
(tsg20
(dp206
g34
I01
sg70
I01
sg36
I01
sg27
I01
sg72
I00
sS'even'
p207
I01
sg23
I00
sg91
I00
sg31
I01
sg43
I01
sg95
I00
sg96
I00
sg39
I01
sg74
I00
sg97
I01
sg73
I01
sg98
I01
sg41
I00
sg99
I01
sg135
I00
sg100
I00
ssbg138
tp208
sg20
(dp209
g69
I01
sg70
I01
sg103
I00
sg71
I01
sg72
I00
sg73
I01
sg74
I00
sg43
I01
sg75
I00
sg31
I01
sg76
I00
ssg83
I01
sbtp210
sg20
(dp211
g103
I00
ssg83
I01
sbag11
aa(lp212
g11
ag11
ag11
ag11
aa(lp213
g7
(g50
g9
Ntp214
Rp215
(dp216
g15
(lp217
sg17
I7322257025076994864
sg18
Nsg19
(g7
(csympy.core.numbers
Rational
p218
g9
Ntp219
Rp220
(dp221
g15
(lp222
sg18
Nsg19
(tsg20
(dp223
g34
I01
sg187
I00
sg36
I01
sg100
I00
sg22
I01
sg90
I00
sg23
I00
sg92
I01
sg188
I00
sg39
I01
sg189
I00
sg41
I00
sg135
I00
sg190
I01
sg27
I01
sg94
I00
sg191
I01
sg31
I01
sg93
I00
sg96
I00
sg97
I01
sg73
I00
sg99
I01
ssg13
I2
sg14
I-1
sg17
I1148730929657254873
sbg57
g193
g7
(g104
g9
Ntp224
Rp225
(dp226
g15
(lp227
sg17
I9110393564831681307
sg18
Nsg19
(g203
g138
tp228
sg20
(dp229
g69
I01
sg70
I01
sg103
I00
sg71
I01
sg72
I00
sg73
I01
sg74
I00
sg43
I01
sg75
I00
sg31
I01
sg76
I00
ssg83
I01
sbtp230
sg20
(dp231
sg83
I01
sbag11
ag11
ag11
aa(lp232
g11
ag11
ag11
ag11
aaa(lp233
(lp234
g11
ag11
ag11
ag178
aa(lp235
g11
ag11
ag11
ag11
aa(lp236
g11
ag11
ag11
ag11
aa(lp237
g215
ag11
ag11
ag11
aaaa(lp238
(lp239
(lp240
g11
ag162
ag11
ag11
aa(lp241
g52
ag11
ag11
ag11
aa(lp242
g11
ag11
ag11
ag11
aa(lp243
g11
ag11
ag11
ag11
aaa(lp244
(lp245
g11
ag11
ag11
ag11
aa(lp246
g11
ag11
ag11
ag11
aa(lp247
g11
ag11
ag11
ag11
aa(lp248
g11
ag11
ag11
ag11
aaa(lp249
(lp250
g11
ag11
ag11
ag11
aa(lp251
g11
ag11
ag7
(g50
g9
Ntp252
Rp253
(dp254
g15
(lp255
sg17
I6718631012295655008
sg18
Nsg19
(g183
g57
g7
(g104
g9
Ntp256
Rp257
(dp258
g15
(lp259
sg17
I-939267203889286163
sg18
Nsg19
(g203
g126
g7
(g50
g9
Ntp260
Rp261
(dp262
g15
(lp263
sg17
I5355134086656321192
sg18
Nsg19
(g131
g7
(g55
g9
Ntp264
Rp265
(dp266
g15
(lp267
sg18
Nsg19
(g62
g7
(g84
g9
Ntp268
Rp269
(dp270
g13
I1
sg14
I6
sg15
(lp271
sg17
I6250427058624512837
sg18
Nsg19
(tsg20
(dp272
g34
I01
sg70
I01
sg36
I01
sg27
I01
sg72
I00
sg23
I00
sg91
I00
sg31
I01
sg43
I01
sg95
I00
sg96
I00
sg39
I01
sg74
I00
sg97
I01
sg73
I01
sg98
I01
sg41
I00
sg99
I01
sg100
I00
ssbtp273
sg20
(dp274
g69
I01
sg70
I01
sg103
I00
sg71
I01
sg72
I00
sg73
I01
sg74
I00
sg43
I01
sg75
I00
sg31
I01
sg81
Nsg149
Nsg76
I00
ssg83
I01
sg17
I2466593220431506546
sbtp275
sg20
(dp276
g94
I00
sg69
I01
sg103
I00
sg71
I01
sg22
I01
sg90
I00
sg149
Nsg152
I01
sg93
I00
sg153
I00
sg31
I01
sg81
Nsg73
I00
sS'imaginary'
p277
I00
sg70
I01
ssg83
I01
sbtp278
sg20
(dp279
g148
I01
sg103
I00
sg27
I01
sg73
Nsg152
Nsg157
Nsg31
I01
sg41
I00
ssg83
I01
sbtp280
sg20
(dp281
g103
I00
ssg83
I01
sbag11
aa(lp282
g11
ag7
(g50
g9
Ntp283
Rp284
(dp285
g15
(lp286
sg17
I7442776392777480234
sg18
Nsg19
(g183
g57
g7
(g104
g9
Ntp287
Rp288
(dp289
g15
(lp290
sg17
I2264122749285681063
sg18
Nsg19
(g7
(g84
g9
Ntp291
Rp292
(dp293
g13
I1
sg14
I-2
sg15
(lp294
sg17
I-6250424536232650227
sg18
Nsg19
(tsg20
(dp295
g34
I01
sg70
I01
sg36
I01
sg27
I01
sg22
I01
sg90
I00
sg23
I00
sg91
I00
sg31
I01
sg92
I01
sg93
I00
sg94
I00
sg95
I00
sg96
I00
sg39
I01
sg97
I01
sg73
I00
sg98
I01
sg41
I00
sg99
I01
sg100
I00
ssbg265
g138
tp296
sg20
(dp297
g148
I01
sg103
I00
sg27
I01
sg73
Nsg152
Nsg157
Nsg31
I01
sg41
I00
ssg83
I01
sbtp298
sg20
(dp299
g103
I00
ssg83
I01
sbag11
ag11
aa(lp300
g11
ag11
ag11
ag11
aaa(lp301
(lp302
g11
ag11
ag11
ag11
aa(lp303
g11
ag11
ag11
ag253
aa(lp304
g11
ag11
ag11
ag11
aa(lp305
g11
ag284
ag11
ag11
aaaa(lp306
(lp307
(lp308
g11
ag11
ag215
ag11
aa(lp309
g11
ag11
ag11
ag11
aa(lp310
g178
ag11
ag11
ag11
aa(lp311
g11
ag11
ag11
ag11
aaa(lp312
(lp313
g11
ag11
ag11
ag11
aa(lp314
g11
ag11
ag284
ag11
aa(lp315
g11
ag253
ag11
ag11
aa(lp316
g11
ag11
ag11
ag11
aaa(lp317
(lp318
g11
ag11
ag11
ag11
aa(lp319
g11
ag11
ag11
ag11
aa(lp320
g11
ag11
ag11
ag11
aa(lp321
g11
ag11
ag11
ag11
aaa(lp322
(lp323
g11
ag11
ag11
ag11
aa(lp324
g11
ag11
ag11
ag11
aa(lp325
g11
ag11
ag11
ag162
aa(lp326
g11
ag11
ag52
ag11
aaaa(lp327
(lp328
(lp329
g11
ag11
ag11
ag215
aa(lp330
g11
ag11
ag11
ag11
aa(lp331
g11
ag11
ag11
ag11
aa(lp332
g178
ag11
ag11
ag11
aaa(lp333
(lp334
g11
ag11
ag11
ag11
aa(lp335
g11
ag11
ag11
ag284
aa(lp336
g11
ag11
ag11
ag11
aa(lp337
g11
ag253
ag11
ag11
aaa(lp338
(lp339
g11
ag11
ag11
ag11
aa(lp340
g11
ag11
ag11
ag11
aa(lp341
g11
ag11
ag11
ag52
aa(lp342
g11
ag11
ag162
ag11
aaa(lp343
(lp344
g11
ag11
ag11
ag11
aa(lp345
g11
ag11
ag11
ag11
aa(lp346
g11
ag11
ag11
ag11
aa(lp347
g11
ag11
ag11
ag11
aaaasS'C'
p348
(lp349
(lp350
(lp351
(lp352
g11
ag11
ag11
ag11
aa(lp353
g11
ag11
ag11
ag11
aa(lp354
g11
ag11
ag11
ag11
aa(lp355
g11
ag11
ag11
ag11
aaa(lp356
(lp357
g11
ag7
(g50
g9
Ntp358
Rp359
(dp360
g15
(lp361
sg17
I2474842788412442407
sg18
Nsg19
(g131
g7
(g55
g9
Ntp362
Rp363
(dp364
g15
(lp365
sg18
Nsg19
(g62
g131
tp366
sg20
(dp367
g103
I00
ssg83
I01
sg17
I5064338127124416427
sbtp368
sg20
g231
sg83
I01
sbag11
ag11
aa(lp369
g363
ag11
ag11
ag11
aa(lp370
g11
ag11
ag11
ag11
aa(lp371
g11
ag11
ag11
ag11
aaa(lp372
(lp373
g11
ag11
ag7
(g50
g9
Ntp374
Rp375
(dp376
g15
(lp377
sg17
I2596175748661886428
sg18
Nsg19
(g183
g363
g193
tp378
sg20
(dp379
g103
I00
ssg83
I01
sbag11
aa(lp380
g11
ag11
ag11
ag11
aa(lp381
g7
(g50
g9
Ntp382
Rp383
(dp384
g15
(lp385
sg17
I-5888119202067252076
sg18
Nsg19
(g220
g363
g193
tp386
sg20
g231
sg83
I01
sbag11
ag11
ag11
aa(lp387
g11
ag11
ag11
ag11
aaa(lp388
(lp389
g11
ag11
ag11
ag375
aa(lp390
g11
ag11
ag11
ag11
aa(lp391
g11
ag11
ag11
ag11
aa(lp392
g383
ag11
ag11
ag11
aaaa(lp393
(lp394
(lp395
g11
ag363
ag11
ag11
aa(lp396
g359
ag11
ag11
ag11
aa(lp397
g11
ag11
ag11
ag11
aa(lp398
g11
ag11
ag11
ag11
aaa(lp399
(lp400
g11
ag11
ag11
ag11
aa(lp401
g11
ag11
ag11
ag11
aa(lp402
g11
ag11
ag11
ag11
aa(lp403
g11
ag11
ag11
ag11
aaa(lp404
(lp405
g11
ag11
ag11
ag11
aa(lp406
g11
ag11
ag7
(g50
g9
Ntp407
Rp408
(dp409
g15
(lp410
sg17
I333191708111493080
sg18
Nsg19
(g183
g363
g106
tp411
sg20
(dp412
g103
I00
ssg83
I01
sbag11
aa(lp413
g11
ag7
(g50
g9
Ntp414
Rp415
(dp416
g15
(lp417
sg17
I-1150930080500639898
sg18
Nsg19
(g183
g363
g166
tp418
sg20
(dp419
g103
I00
ssg83
I01
sbag11
ag11
aa(lp420
g11
ag11
ag11
ag11
aaa(lp421
(lp422
g11
ag11
ag11
ag11
aa(lp423
g11
ag11
ag11
ag408
aa(lp424
g11
ag11
ag11
ag11
aa(lp425
g11
ag415
ag11
ag11
aaaa(lp426
(lp427
(lp428
g11
ag11
ag383
ag11
aa(lp429
g11
ag11
ag11
ag11
aa(lp430
g375
ag11
ag11
ag11
aa(lp431
g11
ag11
ag11
ag11
aaa(lp432
(lp433
g11
ag11
ag11
ag11
aa(lp434
g11
ag11
ag415
ag11
aa(lp435
g11
ag408
ag11
ag11
aa(lp436
g11
ag11
ag11
ag11
aaa(lp437
(lp438
g11
ag11
ag11
ag11
aa(lp439
g11
ag11
ag11
ag11
aa(lp440
g11
ag11
ag11
ag11
aa(lp441
g11
ag11
ag11
ag11
aaa(lp442
(lp443
g11
ag11
ag11
ag11
aa(lp444
g11
ag11
ag11
ag11
aa(lp445
g11
ag11
ag11
ag363
aa(lp446
g11
ag11
ag359
ag11
aaaa(lp447
(lp448
(lp449
g11
ag11
ag11
ag383
aa(lp450
g11
ag11
ag11
ag11
aa(lp451
g11
ag11
ag11
ag11
aa(lp452
g375
ag11
ag11
ag11
aaa(lp453
(lp454
g11
ag11
ag11
ag11
aa(lp455
g11
ag11
ag11
ag415
aa(lp456
g11
ag11
ag11
ag11
aa(lp457
g11
ag408
ag11
ag11
aaa(lp458
(lp459
g11
ag11
ag11
ag11
aa(lp460
g11
ag11
ag11
ag11
aa(lp461
g11
ag11
ag11
ag359
aa(lp462
g11
ag11
ag363
ag11
aaa(lp463
(lp464
g11
ag11
ag11
ag11
aa(lp465
g11
ag11
ag11
ag11
aa(lp466
g11
ag11
ag11
ag11
aa(lp467
g11
ag11
ag11
ag11
aaaasS'g'
p468
g7
(csympy.matrices.matrices
Matrix
p469
g9
Ntp470
Rp471
(dp472
S'rows'
p473
I4
sS'cols'
p474
I4
sS'mat'
p475
(lp476
g7
(g50
g9
Ntp477
Rp478
(dp479
g15
(lp480
sg17
I-440765197311173762
sg18
Nsg19
(g7
(g55
g9
Ntp481
Rp482
(dp483
g15
(lp484
sg18
Nsg19
(g62
g292
tp485
sg20
(dp486
g69
I01
sg70
I01
sg103
I00
sg71
I01
sg72
I00
sg73
I01
sS'even'
p487
Nsg74
I00
sg43
I01
sg75
I00
sg31
I01
sg82
Nsg76
I00
sS'odd'
p488
NsS'irrational'
p489
Nssg83
I01
sg17
I-7361467779090877078
sbg7
(g55
g9
Ntp490
Rp491
(dp492
g15
(lp493
sg18
Nsg19
(g106
g131
tp494
sg20
(dp495
g148
I01
sg103
I00
sg27
I01
sg156
Nsg73
Nsg152
Nsg31
I01
sg41
I00
ssg83
I01
sg17
I642426593350858828
sbtp496
sg20
(dp497
g148
I01
sg487
Nsg103
I00
sg27
I01
sg73
Nsg152
NsS'zero'
p498
Nsg31
I01
sg82
NsS'imaginary'
p499
I00
sg488
Nsg489
Nssg83
I01
sbag11
ag11
ag11
ag11
ag7
(g50
g9
Ntp500
Rp501
(dp502
g15
(lp503
sg17
I-573646524491049822
sg18
Nsg19
(g482
g166
tp504
sg20
(dp505
g148
I01
sg487
Nsg103
I00
sg27
I01
sg73
Nsg152
Nsg498
Nsg31
I01
sg82
Nsg499
I00
sg488
Nsg489
Nssg83
I01
sbag11
ag11
ag11
ag11
ag482
ag11
ag11
ag11
ag11
ag482
asbsS'R2'
p506
(lp507
(lp508
g7
(g50
g9
Ntp509
Rp510
(dp511
g15
(lp512
sg17
I-654180733032300008
sg18
Nsg19
(g142
g482
g193
tp513
sg20
(dp514
g103
I00
ssg83
I01
sbag11
ag11
ag11
aa(lp515
g11
ag7
(g50
g9
Ntp516
Rp517
(dp518
g15
(lp519
sg17
I-3832961523781889124
sg18
Nsg19
(g142
g482
g106
tp520
sg20
(dp521
g103
I00
ssg83
I01
sbag11
ag11
aa(lp522
g11
ag11
ag7
(g50
g9
Ntp523
Rp524
(dp525
g15
(lp526
sg17
I-7771581506764228060
sg18
Nsg19
(g7
(g84
g9
Ntp527
Rp528
(dp529
g13
I1
sg14
I-3
sg15
(lp530
sg17
I-6250423275033321306
sg18
Nsg19
(tsg20
(dp531
g34
I01
sg70
I01
sg36
I01
sg27
I01
sg22
I01
sg90
I00
sg23
I00
sg91
I00
sg31
I01
sg92
I01
sg93
I00
sg94
I00
sg95
I00
sg96
I00
sg39
I01
sg97
I01
sg73
I00
sg98
I01
sg41
I00
sg99
I01
sg100
I00
ssbg482
tp532
sg20
g231
sg83
I01
sbag11
aa(lp533
g11
ag11
ag11
ag524
aasS'R'
p534
g7
(g84
g9
Ntp535
Rp536
(dp537
g13
I1
sg14
I-12
sg15
(lp538
sg17
I-6250432103414643165
sg18
Nsg19
(tsg20
(dp539
g34
I01
sg70
I01
sg36
I01
sg27
I01
sg22
I01
sg90
I00
sg23
I00
sg91
I00
sg31
I01
sg92
I01
sg93
I00
sg94
I00
sg95
I00
sg96
I00
sg39
I01
sg97
I01
sg73
I00
sg98
I01
sg41
I00
sg99
I01
sg100
I00
ssbsS'CS'
p540
(lp541
(lp542
(lp543
g7
(g50
g9
Ntp544
Rp545
(dp546
g15
(lp547
sg17
I-7476545387968417098
sg18
Nsg19
(g183
g7
(g55
g9
Ntp548
Rp549
(dp550
g15
(lp551
sg18
Nsg19
(g62
g528
tp552
sg20
(dp553
g103
I00
ssg83
I01
sg17
I-6257445575032252761
sbg7
(g55
g9
Ntp554
Rp555
(dp556
g15
(lp557
sg18
Nsg19
(g7
(g104
g9
Ntp558
Rp559
(dp560
g15
(lp561
sg17
I-5051952461526751815
sg18
Nsg19
(g111
g265
g7
(g50
g9
Ntp562
Rp563
(dp564
g15
(lp565
sg17
I7436554127313629918
sg18
Nsg19
(g292
g138
tp566
sg20
(dp567
g94
I00
sg69
I01
sg103
I00
sg71
I01
sg22
I01
sg90
I00
sg73
I00
sg152
I01
sg93
I00
sg153
I00
sg31
I01
sg81
Nsg149
Nsg277
I00
sg70
I01
ssg83
I01
sbtp568
sg20
(dp569
g148
I01
sg103
I00
sg27
I01
sg73
Nsg152
Nsg157
Nsg31
I01
sg41
I00
ssg83
I01
sbg131
tp570
sg20
(dp571
g103
I00
ssg83
I01
sg17
I-6666239570733994489
sbg7
(g104
g9
Ntp572
Rp573
(dp574
g15
(lp575
sg17
I6210158575161223507
sg18
Nsg19
(g292
g7
(g50
g9
Ntp576
Rp577
(dp578
g15
(lp579
sg17
I-5816302797285599691
sg18
Nsg19
(g7
(g84
g9
Ntp580
Rp581
(dp582
g13
I1
sg14
I5
sg15
(lp583
sg17
I6250428319823841758
sg18
Nsg19
(tsg20
(dp584
g34
I01
sg70
I01
sg36
I01
sg27
I01
sg72
I00
sg23
I00
sg91
I00
sg31
I01
sg43
I01
sg95
I00
sg96
I00
sg39
I01
sg74
I00
sg97
I01
sg73
I01
sg98
I01
sg41
I00
sg99
I01
sg100
I00
ssbg138
tp585
sg20
(dp586
g69
I01
sg70
I01
sg103
I00
sg71
I01
sg72
I00
sg149
Nsg74
I00
sg43
I01
sg75
I00
sg31
I01
sg81
Nsg73
I01
sg76
I00
ssg83
I01
sbtp587
sg20
(dp588
g148
I01
sg103
I00
sg27
I01
sg73
Nsg152
Nsg157
Nsg31
I01
sg41
I00
ssg83
I01
sbtp589
sg20
g231
sg83
I01
sbag11
ag11
ag11
aa(lp590
g11
ag7
(g50
g9
Ntp591
Rp592
(dp593
g15
(lp594
sg17
I2195274792652502969
sg18
Nsg19
(g220
g549
g225
tp595
sg20
g231
sg83
I01
sbag11
ag11
aa(lp596
g11
ag11
ag549
ag11
aa(lp597
g11
ag11
ag11
ag549
aaa(lp598
(lp599
g11
ag7
(g50
g9
Ntp600
Rp601
(dp602
g15
(lp603
sg17
I-2246736091228415007
sg18
Nsg19
(g183
g549
g225
tp604
sg20
g231
sg83
I01
sbag11
ag11
aa(lp605
g601
ag11
ag11
ag11
aa(lp606
g11
ag11
ag11
ag11
aa(lp607
g11
ag11
ag11
ag11
aaa(lp608
(lp609
g11
ag11
ag7
(g50
g9
Ntp610
Rp611
(dp612
g15
(lp613
sg17
I6432001389209517179
sg18
Nsg19
(g131
g549
tp614
sg20
g231
sg83
I01
sbag11
aa(lp615
g11
ag11
ag11
ag11
aa(lp616
g611
ag11
ag11
ag11
aa(lp617
g11
ag11
ag11
ag11
aaa(lp618
(lp619
g11
ag11
ag11
ag611
aa(lp620
g11
ag11
ag11
ag11
aa(lp621
g11
ag11
ag11
ag11
aa(lp622
g611
ag11
ag11
ag11
aaasS'x'
p623
(lp624
g62
ag7
(g60
g9
Ntp625
Rp626
(dp627
g15
(lp628
sg65
S't'
p629
sg18
Nsg19
(tsg20
(dp630
g80
I00
ssg83
I01
sg17
I4904675791785725879
sbag7
(g60
g9
Ntp631
Rp632
(dp633
g15
(lp634
sg65
S'x1'
p635
sg18
Nsg19
(tsg20
g630
sg83
I01
sg17
I-4415447792105516003
sbag7
(g60
g9
Ntp636
Rp637
(dp638
g15
(lp639
sg65
S'x2'
p640
sg18
Nsg19
(tsg20
g630
sg83
I01
sg17
I-4415447792106681052
sbasS'ginv'
p641
g7
(g469
g9
Ntp642
Rp643
(dp644
g473
I4
sg474
I4
sg475
(lp645
g7
(g50
g9
Ntp646
Rp647
(dp648
g15
(lp649
sg17
I-3932164644147884856
sg18
Nsg19
(g7
(g55
g9
Ntp650
Rp651
(dp652
g15
(lp653
sg18
Nsg19
(g62
g203
tp654
sg20
(dp655
sg83
I01
sg17
I5144576987403360230
sbg106
tp656
sg20
g231
sg83
I01
sbag11
ag11
ag11
ag11
ag7
(g50
g9
Ntp657
Rp658
(dp659
g15
(lp660
sg17
I-2352075758069948596
sg18
Nsg19
(g651
g193
tp661
sg20
g231
sg83
I01
sbag11
ag11
ag11
ag11
ag651
ag11
ag11
ag11
ag11
ag651
asbsb.