(imetric
Metric
p0
(dp1
S'R4'
p2
(lp3
(lp4
(lp5
(lp6
ccopy_reg
_reconstructor
p7
(csympy.core.numbers
Zero
p8
c__builtin__
object
p9
Ntp10
Rp11
(dp12
S'q'
p13
I1
sS'p'
p14
I0
sS'_a_inprogress'
p15
(lp16
sS'_mhash'
p17
I-3157700006611994746
sS'_assume_type_keys'
p18
NsS'_args'
p19
(tsS'_assumptions'
p20
(dp21
S'nonpositive'
p22
I01
sS'unbounded'
p23
I00
sS'zero'
p24
I01
sS'odd'
p25
I00
sS'even'
p26
I01
sS'commutative'
p27
I01
sS'positive'
p28
I00
sS'noninteger'
p29
I00
sS'negative'
p30
I00
sS'complex'
p31
I01
sS'rational'
p32
I01
sS'finite'
p33
I00
sS'real'
p34
I01
sS'nonzero'
p35
I00
sS'comparable'
p36
I01
sS'irrational'
p37
I00
sS'composite'
p38
I00
sS'bounded'
p39
I01
sS'integer'
p40
I01
sS'imaginary'
p41
I00
sS'prime'
p42
I00
sS'nonnegative'
p43
I01
sS'infinitesimal'
p44
I01
ssbag11
ag11
ag11
aa(lp45
g11
ag11
ag11
ag11
aa(lp46
g11
ag11
ag11
ag11
aa(lp47
g11
ag11
ag11
ag11
aaa(lp48
(lp49
g11
ag7
(csympy.core.mul
Mul
p50
g9
Ntp51
Rp52
(dp53
g15
(lp54
sg17
I-4660743337911449974
sg18
Nsg19
(g7
(csympy.core.power
Pow
p55
g9
Ntp56
Rp57
(dp58
g15
(lp59
sg18
Nsg19
(g7
(csympy.core.symbol
Symbol
p60
g9
Ntp61
Rp62
(dp63
g15
(lp64
sS'name'
p65
S'L'
p66
sg18
c__builtin__
frozenset
p67
((lp68
S'real'
p69
aS'nonzero'
p70
aS'commutative'
p71
aS'nonpositive'
p72
aS'positive'
p73
aS'negative'
p74
ag43
aS'zero'
p75
ag31
aS'imaginary'
p76
atp77
Rp78
sg19
(tsg20
(dp79
g69
I01
sg70
I01
sS'comparable'
p80
I00
sg71
I01
sg72
I00
sg73
I01
sS'even'
p81
Nsg74
I00
sg43
I01
sg75
I00
sg31
I01
sS'integer'
p82
Nsg76
I00
ssS'is_commutative'
p83
I01
sg17
I-6729020298421345889
sbg7
(csympy.core.numbers
Integer
p84
g9
Ntp85
Rp86
(dp87
g13
I1
sg14
I2
sg15
(lp88
sg17
I6250422013836517545
sg18
Nsg19
(tsg20
(dp89
g34
I01
sg70
I01
sg36
I01
sg27
I01
sg72
I00
sS'even'
p90
I01
sg23
I00
sS'noninteger'
p91
I00
sg31
I01
sg43
I01
sS'zero'
p92
I00
sS'infinitesimal'
p93
I00
sg39
I01
sg74
I00
sS'rational'
p94
I01
sg73
I01
sS'integer'
p95
I01
sg41
I00
sS'finite'
p96
I01
sS'odd'
p97
I00
sS'irrational'
p98
I00
ssbtp99
sg20
(dp100
S'real'
p101
I01
sg81
NsS'comparable'
p102
I00
sg27
I01
sg72
I00
sg73
I01
sg74
I00
sg43
I01
sg75
I00
sg31
I01
sg82
Nsg41
I00
sg70
I01
sS'odd'
p103
NsS'irrational'
p104
Nssg83
I01
sg17
I6785851273990932176
sbg7
(g55
g9
Ntp105
Rp106
(dp107
g15
(lp108
sg18
Nsg19
(g7
(g60
g9
Ntp109
Rp110
(dp111
g15
(lp112
sg65
S'z'
p113
sg18
g67
((lp114
g69
ag70
ag71
ag72
ag73
ag74
ag43
ag75
ag31
ag76
atp115
Rp116
sg19
(tsg20
(dp117
g69
I01
sg70
I01
sg80
I00
sg71
I01
sg72
I00
sg73
I01
sg74
I00
sg43
I01
sg75
I00
sg31
I01
sS'bounded'
p118
Nsg76
I00
ssg83
I01
sg17
I1271321771744059877
sbg7
(g84
g9
Ntp119
Rp120
(dp121
g13
I1
sg14
I-4
sg15
(lp122
sg17
I-6250422013838652581
sg18
Nsg19
(tsg20
(dp123
g34
I01
sg70
I01
sg36
I01
sg27
I01
sg22
I01
sS'composite'
p124
I00
sg23
I00
sg91
I00
sg31
I01
sS'negative'
p125
I01
sS'nonnegative'
p126
I00
sS'prime'
p127
I00
sg92
I00
sg93
I00
sg39
I01
sg94
I01
sg73
I00
sg95
I01
sg41
I00
sg96
I01
sg98
I00
ssbtp128
sg20
(dp129
g102
I00
ssg83
I01
sg17
I-5144579386560609692
sbg7
(g55
g9
Ntp130
Rp131
(dp132
g15
(lp133
sg18
Nsg19
(g7
(g60
g9
Ntp134
Rp135
(dp136
g15
(lp137
sg65
S'zh'
p138
sg18
g67
((lp139
g69
ag70
ag71
ag72
ag73
ag74
ag43
ag75
ag31
ag76
atp140
Rp141
sg19
(tsg20
(dp142
g69
I01
sg70
I01
sg80
I00
sg71
I01
sg72
I00
sg73
I01
sg74
I00
sg43
I01
sg75
I00
sg31
I01
sg118
Nsg76
I00
ssg83
I01
sg17
I3435612267341042974
sbg7
(g84
g9
Ntp143
Rp144
(dp145
g13
I1
sg14
I-3
sg15
(lp146
sg17
I-6250423275033321306
sg18
Nsg19
(tsg20
(dp147
g34
I01
sg70
I01
sg36
I01
sg27
I01
sg22
I01
sg124
I00
sg23
I00
sg91
I00
sg31
I01
sg125
I01
sg126
I00
sg127
I00
sg92
I00
sg93
I00
sg39
I01
sg94
I01
sg73
I00
sg95
I01
sg41
I00
sg96
I01
sg98
I00
ssbtp148
sg20
(dp149
g101
I01
sg70
I01
sg102
I00
sg27
I01
sg72
I00
sg73
I01
sg74
I00
sg43
I01
sg75
I00
sg31
I01
sg41
I00
ssg83
I01
sg17
I5769670905226434536
sbg7
(csympy.core.add
Add
p150
g9
Ntp151
Rp152
(dp153
g15
(lp154
sg17
I8173610868693180136
sg18
Nsg19
(g7
(g55
g9
Ntp155
Rp156
(dp157
g15
(lp158
sg18
Nsg19
(g135
g7
(g84
g9
Ntp159
Rp160
(dp161
g13
I1
sg14
I3
sg15
(lp162
sg17
I6250420752641848820
sg18
Nsg19
(tsg20
(dp163
g34
I01
sg70
I01
sg36
I01
sg27
I01
sg72
I00
sS'even'
p164
I00
sg23
I00
sg91
I00
sg31
I01
sg43
I01
sg92
I00
sg93
I00
sg39
I01
sg74
I00
sg94
I01
sg73
I01
sg95
I01
sg41
I00
sg96
I01
sg97
I01
sg98
I00
ssbtp165
sg20
(dp166
g69
I01
sg70
I01
sg102
I00
sg71
I01
sg72
I00
sg73
I01
sS'negative'
p167
I00
sg43
I01
sg75
I00
sg31
I01
sg118
NsS'unbounded'
p168
Nsg76
I00
ssg83
I01
sg17
I-8075110680986691190
sbg7
(g50
g9
Ntp169
Rp170
(dp171
g15
(lp172
sg17
I-5121512360890947879
sg18
Nsg19
(g7
(csympy.core.numbers
NegativeOne
p173
g9
Ntp174
Rp175
(dp176
g13
I1
sg14
I-1
sg15
(lp177
sg17
I7661115593229879962
sg18
Nsg19
(tsg20
(dp178
g22
I01
sg23
I00
sg92
I00
sg97
I01
sg70
I01
sg27
I01
sg73
I00
sg91
I00
sg125
I01
sg31
I01
sg94
I01
sg96
I01
sg34
I01
sg164
I00
sg36
I01
sg98
I00
sg124
I00
sg39
I01
sg95
I01
sg41
I00
sg127
I00
sg126
I00
sg93
I00
ssbg7
(g55
g9
Ntp179
Rp180
(dp181
g15
(lp182
sg18
Nsg19
(g110
g160
tp183
sg20
(dp184
g101
I01
sg70
I01
sg102
I00
sg27
I01
sg72
I00
sg73
I01
sg74
I00
sg43
I01
sg75
I00
sg31
I01
sg118
Nsg168
Nsg41
I00
ssg83
I01
sg17
I3914135033089382249
sbtp185
sg20
(dp186
g127
I00
sg69
I01
sg102
I00
sg71
I01
sg22
I01
sg124
I00
sg73
I00
sg167
I01
sg126
I00
sS'zero'
p187
I00
sg31
I01
sg118
Nsg168
NsS'imaginary'
p188
I00
sg70
I01
ssg83
I01
sbtp189
sg20
(dp190
g101
I01
sg102
I00
sg27
I01
sg73
Nsg167
NsS'nonnegative'
p191
Nsg31
I01
sg41
I00
ssg83
I01
sbtp192
sg20
(dp193
g102
I00
ssg83
I01
sbag11
ag11
aa(lp194
g7
(g50
g9
Ntp195
Rp196
(dp197
g15
(lp198
sg17
I5462422152417470580
sg18
Nsg19
(g57
g106
g131
g7
(g150
g9
Ntp199
Rp200
(dp201
g15
(lp202
sg17
I-6139255615454503858
sg18
Nsg19
(g7
(g50
g9
Ntp203
Rp204
(dp205
g15
(lp206
sg17
I-5410800769431853248
sg18
Nsg19
(g175
g156
tp207
sg20
(dp208
g127
I00
sg69
I01
sg102
I00
sg71
I01
sg22
I01
sg124
I00
sg73
I00
sg167
I01
sg126
I00
sg187
I00
sg31
I01
sg118
Nsg168
Nsg188
I00
sg70
I01
ssg83
I01
sbg180
tp209
sg20
(dp210
g101
I01
sg102
I00
sg27
I01
sg73
Nsg167
Nsg191
Nsg31
I01
sg41
I00
ssg83
I01
sbtp211
sg20
(dp212
g102
I00
ssg83
I01
sbag11
ag11
ag11
aa(lp213
g11
ag11
ag11
ag11
aa(lp214
g11
ag11
ag11
ag11
aaa(lp215
(lp216
g11
ag11
ag7
(g50
g9
Ntp217
Rp218
(dp219
g15
(lp220
sg17
I4918031990554329166
sg18
Nsg19
(g7
(csympy.core.numbers
Half
p221
g9
Ntp222
Rp223
(dp224
g13
I2
sg14
I1
sg15
(lp225
sg18
Nsg17
I-5026320711726984031
sg19
(tsg20
(dp226
g34
I01
sS'even'
p227
I00
sg36
I01
sg98
I00
sg72
I00
sg124
I00
sg23
I00
sg74
I00
sS'zero'
p228
I00
sg39
I01
sS'integer'
p229
I00
sg41
I00
sg97
I00
sS'nonzero'
p230
I01
sg27
I01
sg127
I00
sS'noninteger'
p231
I01
sg31
I01
sg43
I01
sg93
I00
sg94
I01
sg73
I01
sg96
I01
ssbg57
g106
g7
(g55
g9
Ntp232
Rp233
(dp234
g15
(lp235
sg18
Nsg19
(g200
g175
tp236
sg20
(dp237
g102
I00
ssg83
I01
sg17
I8896493536948173356
sbg7
(g150
g9
Ntp238
Rp239
(dp240
g15
(lp241
sg17
I8486755629934766889
sg18
Nsg19
(g7
(g50
g9
Ntp242
Rp243
(dp244
g15
(lp245
sg17
I-1892070500900236905
sg18
Nsg19
(g86
g156
tp246
sg20
(dp247
g69
I01
sg70
I01
sg102
I00
sg71
I01
sg72
I00
sg73
I01
sg74
I00
sg43
I01
sg75
I00
sg31
I01
sg76
I00
ssg83
I01
sbg180
tp248
sg20
(dp249
g69
I01
sg70
I01
sg102
I00
sg71
I01
sg72
I00
sg73
I01
sg74
I00
sg43
I01
sg75
I00
sg31
I01
sg76
I00
ssg83
I01
sbtp250
sg20
(dp251
g102
I00
ssg83
I01
sbag11
aa(lp252
g11
ag11
ag11
ag11
aa(lp253
g7
(g50
g9
Ntp254
Rp255
(dp256
g15
(lp257
sg17
I-8383243517017205094
sg18
Nsg19
(g223
g57
g106
g233
g7
(g150
g9
Ntp258
Rp259
(dp260
g15
(lp261
sg17
I-7411903306865085163
sg18
Nsg19
(g170
g7
(g50
g9
Ntp262
Rp263
(dp264
g15
(lp265
sg17
I-4550300163967688045
sg18
Nsg19
(g7
(g84
g9
Ntp266
Rp267
(dp268
g13
I1
sg14
I-2
sg15
(lp269
sg17
I-6250424536232650227
sg18
Nsg19
(tsg20
(dp270
g34
I01
sg70
I01
sg36
I01
sg27
I01
sg22
I01
sg124
I00
sg23
I00
sg91
I00
sg31
I01
sg125
I01
sg126
I00
sg127
I00
sg92
I00
sg93
I00
sg39
I01
sg94
I01
sg73
I00
sg95
I01
sg41
I00
sg96
I01
sg98
I00
ssbg156
tp271
sg20
(dp272
g127
I00
sg69
I01
sg102
I00
sg71
I01
sg22
I01
sg124
I00
sg73
I00
sg167
I01
sg126
I00
sg187
I00
sg31
I01
sg118
Nsg168
Nsg188
I00
sg70
I01
ssg83
I01
sbtp273
sg20
(dp274
g127
I00
sg69
I01
sg102
I00
sg71
I01
sg22
I01
sg124
I00
sg73
I00
sg167
I01
sg126
I00
sg187
I00
sg31
I01
sg188
I00
sg70
I01
ssg83
I01
sbtp275
sg20
(dp276
g102
I00
ssg83
I01
sbag11
ag11
ag11
aa(lp277
g11
ag11
ag11
ag11
aaa(lp278
(lp279
g11
ag11
ag11
ag218
aa(lp280
g11
ag11
ag11
ag11
aa(lp281
g11
ag11
ag11
ag11
aa(lp282
g255
ag11
ag11
ag11
aaaa(lp283
(lp284
(lp285
g11
ag196
ag11
ag11
aa(lp286
g52
ag11
ag11
ag11
aa(lp287
g11
ag11
ag11
ag11
aa(lp288
g11
ag11
ag11
ag11
aaa(lp289
(lp290
g11
ag11
ag11
ag11
aa(lp291
g11
ag11
ag11
ag11
aa(lp292
g11
ag11
ag11
ag11
aa(lp293
g11
ag11
ag11
ag11
aaa(lp294
(lp295
g11
ag11
ag11
ag11
aa(lp296
g11
ag11
ag7
(g50
g9
Ntp297
Rp298
(dp299
g15
(lp300
sg17
I-6528893500417408150
sg18
Nsg19
(g223
g57
g106
g7
(g55
g9
Ntp301
Rp302
(dp303
g15
(lp304
sg18
Nsg19
(g135
g7
(g84
g9
Ntp305
Rp306
(dp307
g13
I1
sg14
I-6
sg15
(lp308
sg17
I-6250429581020645519
sg18
Nsg19
(tsg20
(dp309
g34
I01
sg70
I01
sg36
I01
sg27
I01
sg22
I01
sg124
I00
sg23
I00
sg91
I00
sg31
I01
sg125
I01
sg126
I00
sg127
I00
sg92
I00
sg93
I00
sg39
I01
sg94
I01
sg73
I00
sg95
I01
sg41
I00
sg96
I01
sg98
I00
ssbtp310
sg20
(dp311
g102
I00
ssg83
I01
sg17
I-2295390277029123027
sbg7
(g150
g9
Ntp312
Rp313
(dp314
g15
(lp315
sg17
I-6009462855588207898
sg18
Nsg19
(g7
(g50
g9
Ntp316
Rp317
(dp318
g15
(lp319
sg17
I2088044969669364602
sg18
Nsg19
(g86
g7
(g55
g9
Ntp320
Rp321
(dp322
g15
(lp323
sg18
Nsg19
(g135
g7
(g84
g9
Ntp324
Rp325
(dp326
g13
I1
sg14
I6
sg15
(lp327
sg17
I6250427058624512837
sg18
Nsg19
(tsg20
(dp328
g34
I01
sg70
I01
sg36
I01
sg27
I01
sg72
I00
sg23
I00
sg91
I00
sg31
I01
sg43
I01
sg92
I00
sg93
I00
sg39
I01
sg74
I00
sg94
I01
sg73
I01
sg95
I01
sg41
I00
sg96
I01
sg98
I00
ssbtp329
sg20
(dp330
g69
I01
sg70
I01
sg102
I00
sg71
I01
sg72
I00
sg73
I01
sg74
I00
sg43
I01
sg75
I00
sg31
I01
sg118
Nsg168
Nsg76
I00
ssg83
I01
sg17
I-8288972475741959487
sbtp331
sg20
(dp332
g69
I01
sg70
I01
sg102
I00
sg71
I01
sg72
I00
sg73
I01
sg74
I00
sg43
I01
sg75
I00
sg31
I01
sg118
Nsg168
Nsg76
I00
ssg83
I01
sbg7
(g50
g9
Ntp333
Rp334
(dp335
g15
(lp336
sg17
I5355134086656321192
sg18
Nsg19
(g175
g7
(g55
g9
Ntp337
Rp338
(dp339
g15
(lp340
sg18
Nsg19
(g110
g325
tp341
sg20
(dp342
g69
I01
sg70
I01
sg102
I00
sg71
I01
sg72
I00
sg168
Nsg74
I00
sg43
I01
sg75
I00
sg31
I01
sg118
Nsg73
I01
sg76
I00
ssg83
I01
sg17
I2466593220431506546
sbtp343
sg20
(dp344
g127
I00
sg69
I01
sg102
I00
sg71
I01
sg22
I01
sg124
I00
sg73
I00
sg167
I01
sg126
I00
sg187
I00
sg31
I01
sg118
Nsg168
Nsg188
I00
sg70
I01
ssg83
I01
sbg7
(g50
g9
Ntp345
Rp346
(dp347
g15
(lp348
sg17
I6188796233091744945
sg18
Nsg19
(g175
g180
g156
tp349
sg20
(dp350
g127
I00
sg69
I01
sg102
I00
sg71
I01
sg22
I01
sg124
I00
sg168
Nsg167
I01
sg126
I00
sg187
I00
sg31
I01
sg118
Nsg73
I00
sg188
I00
sg70
I01
ssg83
I01
sbtp351
sg20
(dp352
g101
I01
sg102
I00
sg27
I01
sg73
Nsg167
Nsg191
Nsg31
I01
sg41
I00
ssg83
I01
sbtp353
sg20
(dp354
g102
I00
ssg83
I01
sbag11
aa(lp355
g11
ag7
(g50
g9
Ntp356
Rp357
(dp358
g15
(lp359
sg17
I-4840618259170503450
sg18
Nsg19
(g223
g57
g106
g302
g7
(g150
g9
Ntp360
Rp361
(dp362
g15
(lp363
sg17
I5900734340669674882
sg18
Nsg19
(g7
(g50
g9
Ntp364
Rp365
(dp366
g15
(lp367
sg17
I-1349177334979101578
sg18
Nsg19
(g267
g321
tp368
sg20
(dp369
g127
I00
sg69
I01
sg102
I00
sg71
I01
sg22
I01
sg124
I00
sg73
I00
sg167
I01
sg126
I00
sg187
I00
sg31
I01
sg118
Nsg168
Nsg188
I00
sg70
I01
ssg83
I01
sbg7
(g50
g9
Ntp370
Rp371
(dp372
g15
(lp373
sg17
I-1329265505000788393
sg18
Nsg19
(g180
g156
tp374
sg20
(dp375
g69
I01
sg70
I01
sg102
I00
sg71
I01
sg72
I00
sg73
I01
sg74
I00
sg43
I01
sg75
I00
sg31
I01
sg118
Nsg76
I00
ssg83
I01
sbg338
tp376
sg20
(dp377
g101
I01
sg102
I00
sg27
I01
sg73
Nsg167
Nsg191
Nsg31
I01
sg41
I00
ssg83
I01
sbtp378
sg20
(dp379
g102
I00
ssg83
I01
sbag11
ag11
aa(lp380
g11
ag11
ag11
ag11
aaa(lp381
(lp382
g11
ag11
ag11
ag11
aa(lp383
g11
ag11
ag11
ag298
aa(lp384
g11
ag11
ag11
ag11
aa(lp385
g11
ag357
ag11
ag11
aaaa(lp386
(lp387
(lp388
g11
ag11
ag255
ag11
aa(lp389
g11
ag11
ag11
ag11
aa(lp390
g218
ag11
ag11
ag11
aa(lp391
g11
ag11
ag11
ag11
aaa(lp392
(lp393
g11
ag11
ag11
ag11
aa(lp394
g11
ag11
ag357
ag11
aa(lp395
g11
ag298
ag11
ag11
aa(lp396
g11
ag11
ag11
ag11
aaa(lp397
(lp398
g11
ag11
ag11
ag11
aa(lp399
g11
ag11
ag11
ag11
aa(lp400
g11
ag11
ag11
ag11
aa(lp401
g11
ag11
ag11
ag11
aaa(lp402
(lp403
g11
ag11
ag11
ag11
aa(lp404
g11
ag11
ag11
ag11
aa(lp405
g11
ag11
ag11
ag196
aa(lp406
g11
ag11
ag52
ag11
aaaa(lp407
(lp408
(lp409
g11
ag11
ag11
ag255
aa(lp410
g11
ag11
ag11
ag11
aa(lp411
g11
ag11
ag11
ag11
aa(lp412
g218
ag11
ag11
ag11
aaa(lp413
(lp414
g11
ag11
ag11
ag11
aa(lp415
g11
ag11
ag11
ag357
aa(lp416
g11
ag11
ag11
ag11
aa(lp417
g11
ag298
ag11
ag11
aaa(lp418
(lp419
g11
ag11
ag11
ag11
aa(lp420
g11
ag11
ag11
ag11
aa(lp421
g11
ag11
ag11
ag52
aa(lp422
g11
ag11
ag196
ag11
aaa(lp423
(lp424
g11
ag11
ag11
ag11
aa(lp425
g11
ag11
ag11
ag11
aa(lp426
g11
ag11
ag11
ag11
aa(lp427
g11
ag11
ag11
ag11
aaaasS'C'
p428
(lp429
(lp430
(lp431
(lp432
g11
ag11
ag11
ag11
aa(lp433
g11
ag11
ag11
ag11
aa(lp434
g11
ag11
ag11
ag11
aa(lp435
g11
ag11
ag11
ag11
aaa(lp436
(lp437
g11
ag7
(g50
g9
Ntp438
Rp439
(dp440
g15
(lp441
sg17
I838036308850665955
sg18
Nsg19
(g175
g57
g7
(g55
g9
Ntp442
Rp443
(dp444
g15
(lp445
sg18
Nsg19
(g110
g175
tp446
sg20
(dp447
g102
I00
ssg83
I01
sg17
I5064338127124416427
sbg131
tp448
sg20
(dp449
sg83
I01
sbag11
ag11
aa(lp450
g7
(g50
g9
Ntp451
Rp452
(dp453
g15
(lp454
sg17
I-1318982377405277109
sg18
Nsg19
(g57
g443
g131
tp455
sg20
(dp456
g102
I00
ssg83
I01
sbag11
ag11
ag11
aa(lp457
g11
ag11
ag11
ag11
aa(lp458
g11
ag11
ag11
ag11
aaa(lp459
(lp460
g11
ag11
ag7
(g50
g9
Ntp461
Rp462
(dp463
g15
(lp464
sg17
I-6968061445475967922
sg18
Nsg19
(g223
g57
g443
g233
tp465
sg20
(dp466
g102
I00
ssg83
I01
sbag11
aa(lp467
g11
ag11
ag11
ag11
aa(lp468
g7
(g50
g9
Ntp469
Rp470
(dp471
g15
(lp472
sg17
I8414208587591839302
sg18
Nsg19
(g7
(csympy.core.numbers
Rational
p473
g9
Ntp474
Rp475
(dp476
g15
(lp477
sg18
Nsg19
(tsg20
(dp478
g34
I01
sg227
I00
sg36
I01
sg98
I00
sg22
I01
sg124
I00
sg23
I00
sg125
I01
sg228
I00
sg39
I01
sg229
I00
sg41
I00
sg97
I00
sg230
I01
sg27
I01
sg127
I00
sg231
I01
sg31
I01
sg126
I00
sg93
I00
sg94
I01
sg73
I00
sg96
I01
ssg13
I2
sg14
I-1
sg17
I1148730929657254873
sbg57
g443
g233
tp479
sg20
g449
sg83
I01
sbag11
ag11
ag11
aa(lp480
g11
ag11
ag11
ag11
aaa(lp481
(lp482
g11
ag11
ag11
ag462
aa(lp483
g11
ag11
ag11
ag11
aa(lp484
g11
ag11
ag11
ag11
aa(lp485
g470
ag11
ag11
ag11
aaaa(lp486
(lp487
(lp488
g11
ag452
ag11
ag11
aa(lp489
g439
ag11
ag11
ag11
aa(lp490
g11
ag11
ag11
ag11
aa(lp491
g11
ag11
ag11
ag11
aaa(lp492
(lp493
g11
ag11
ag11
ag11
aa(lp494
g11
ag11
ag11
ag11
aa(lp495
g11
ag11
ag11
ag11
aa(lp496
g11
ag11
ag11
ag11
aaa(lp497
(lp498
g11
ag11
ag11
ag11
aa(lp499
g11
ag11
ag7
(g50
g9
Ntp500
Rp501
(dp502
g15
(lp503
sg17
I2140789425398337101
sg18
Nsg19
(g223
g57
g443
g302
g152
tp504
sg20
(dp505
g102
I00
ssg83
I01
sbag11
aa(lp506
g11
ag7
(g50
g9
Ntp507
Rp508
(dp509
g15
(lp510
sg17
I-8400029063625342497
sg18
Nsg19
(g223
g57
g443
g302
g200
tp511
sg20
(dp512
g102
I00
ssg83
I01
sbag11
ag11
aa(lp513
g11
ag11
ag11
ag11
aaa(lp514
(lp515
g11
ag11
ag11
ag11
aa(lp516
g11
ag11
ag11
ag501
aa(lp517
g11
ag11
ag11
ag11
aa(lp518
g11
ag508
ag11
ag11
aaaa(lp519
(lp520
(lp521
g11
ag11
ag470
ag11
aa(lp522
g11
ag11
ag11
ag11
aa(lp523
g462
ag11
ag11
ag11
aa(lp524
g11
ag11
ag11
ag11
aaa(lp525
(lp526
g11
ag11
ag11
ag11
aa(lp527
g11
ag11
ag508
ag11
aa(lp528
g11
ag501
ag11
ag11
aa(lp529
g11
ag11
ag11
ag11
aaa(lp530
(lp531
g11
ag11
ag11
ag11
aa(lp532
g11
ag11
ag11
ag11
aa(lp533
g11
ag11
ag11
ag11
aa(lp534
g11
ag11
ag11
ag11
aaa(lp535
(lp536
g11
ag11
ag11
ag11
aa(lp537
g11
ag11
ag11
ag11
aa(lp538
g11
ag11
ag11
ag452
aa(lp539
g11
ag11
ag439
ag11
aaaa(lp540
(lp541
(lp542
g11
ag11
ag11
ag470
aa(lp543
g11
ag11
ag11
ag11
aa(lp544
g11
ag11
ag11
ag11
aa(lp545
g462
ag11
ag11
ag11
aaa(lp546
(lp547
g11
ag11
ag11
ag11
aa(lp548
g11
ag11
ag11
ag508
aa(lp549
g11
ag11
ag11
ag11
aa(lp550
g11
ag501
ag11
ag11
aaa(lp551
(lp552
g11
ag11
ag11
ag11
aa(lp553
g11
ag11
ag11
ag11
aa(lp554
g11
ag11
ag11
ag439
aa(lp555
g11
ag11
ag452
ag11
aaa(lp556
(lp557
g11
ag11
ag11
ag11
aa(lp558
g11
ag11
ag11
ag11
aa(lp559
g11
ag11
ag11
ag11
aa(lp560
g11
ag11
ag11
ag11
aaaasS'g'
p561
g7
(csympy.matrices.matrices
Matrix
p562
g9
Ntp563
Rp564
(dp565
S'rows'
p566
I4
sS'cols'
p567
I4
sS'mat'
p568
(lp569
g7
(g50
g9
Ntp570
Rp571
(dp572
g15
(lp573
sg17
I-3490970834319816480
sg18
Nsg19
(g57
g7
(g55
g9
Ntp574
Rp575
(dp576
g15
(lp577
sg18
Nsg19
(g110
g267
tp578
sg20
(dp579
g101
I01
sg70
I01
sg102
I00
sg27
I01
sg72
I00
sg73
I01
sg74
I00
sg43
I01
sg75
I00
sg31
I01
sg41
I00
ssg83
I01
sg17
I-7361467779090877078
sbg7
(g55
g9
Ntp580
Rp581
(dp582
g15
(lp583
sg18
Nsg19
(g7
(g150
g9
Ntp584
Rp585
(dp586
g15
(lp587
sg17
I341993715360884068
sg18
Nsg19
(g7
(csympy.core.numbers
One
p588
g9
Ntp589
Rp590
(dp591
g13
I1
sg14
I1
sg15
(lp592
sg17
I-237126060543571952
sg18
Nsg19
(tsg20
(dp593
S'prime'
p594
I01
sg69
I01
sg36
I01
sg96
I01
sg27
I01
sg93
I00
sS'nonpositive'
p595
I00
sS'composite'
p596
I00
sS'positive'
p597
I01
sS'noninteger'
p598
I00
sS'negative'
p599
I00
sg43
I01
sS'zero'
p600
I00
sS'complex'
p601
I01
sg39
I01
sg32
I01
sg23
I00
sg40
I01
sS'imaginary'
p602
I00
sg70
I01
sS'irrational'
p603
I00
ssbg7
(g50
g9
Ntp604
Rp605
(dp606
g15
(lp607
sg17
I495133346226146019
sg18
Nsg19
(g175
g180
g131
tp608
sg20
(dp609
g101
I01
sg127
I00
sg102
I00
sg27
I01
sg22
I01
sg124
I00
sg73
I00
sg167
I01
sg126
I00
sg187
I00
sg31
I01
sg118
Nsg168
Nsg41
I00
sg70
I01
ssg83
I01
sbtp610
sg20
(dp611
g101
I01
sg102
I00
sg27
I01
sS'nonpositive'
p612
Nsg73
Nsg167
Nsg191
Nsg31
I01
sg41
I00
ssg83
I01
sbg175
tp613
sg20
(dp614
g101
I01
sg102
I00
sg27
I01
sg612
Nsg73
Nsg167
Nsg31
I01
sg41
I00
ssg83
I01
sg17
I-2378981236463270986
sbtp615
sg20
(dp616
g101
I01
sg81
Nsg102
I00
sg27
I01
sg73
Nsg167
NsS'zero'
p617
Nsg31
I01
sg82
NsS'imaginary'
p618
I00
sg103
Nsg104
Nssg83
I01
sbag11
ag11
ag11
ag11
ag7
(g50
g9
Ntp619
Rp620
(dp621
g15
(lp622
sg17
I-8383738308347415850
sg18
Nsg19
(g57
g575
g7
(g150
g9
Ntp623
Rp624
(dp625
g15
(lp626
sg17
I8664387814428324232
sg18
Nsg19
(g175
g7
(g50
g9
Ntp627
Rp628
(dp629
g15
(lp630
sg17
I8464181163096640873
sg18
Nsg19
(g180
g131
tp631
sg20
(dp632
g101
I01
sg70
I01
sg102
I00
sg27
I01
sg72
I00
sg168
Nsg74
I00
sg43
I01
sg75
I00
sg31
I01
sg118
Nsg73
I01
sg41
I00
ssg83
I01
sbtp633
sg20
(dp634
g101
I01
sg102
I00
sg27
I01
sg612
Nsg73
Nsg167
Nsg191
Nsg31
I01
sg41
I00
ssg83
I01
sbtp635
sg20
(dp636
g101
I01
sg81
Nsg102
I00
sg27
I01
sg73
Nsg167
Nsg617
Nsg31
I01
sg82
Nsg618
I00
sg103
Nsg104
Nssg83
I01
sbag11
ag11
ag11
ag11
ag7
(g50
g9
Ntp637
Rp638
(dp639
g15
(lp640
sg17
I8658107274010161290
sg18
Nsg19
(g57
g575
tp641
sg20
(dp642
g101
I01
sg81
Nsg27
I01
sg72
I00
sg73
I01
sg74
I00
sg43
I01
sg75
I00
sg31
I01
sg82
Nsg618
I00
sg70
I01
sg103
Nsg104
Nssg83
I01
sbag11
ag11
ag11
ag11
ag638
asbsS'R2'
p643
(lp644
(lp645
g7
(g50
g9
Ntp646
Rp647
(dp648
g15
(lp649
sg17
I-3398301005692983402
sg18
Nsg19
(g160
g575
g156
g233
tp650
sg20
(dp651
g102
I00
ssg83
I01
sbag11
ag11
ag11
aa(lp652
g11
ag7
(g50
g9
Ntp653
Rp654
(dp655
g15
(lp656
sg17
I2739025615402479712
sg18
Nsg19
(g160
g575
g131
g152
tp657
sg20
(dp658
g102
I00
ssg83
I01
sbag11
ag11
aa(lp659
g11
ag11
ag7
(g50
g9
Ntp660
Rp661
(dp662
g15
(lp663
sg17
I-7771581506764228060
sg18
Nsg19
(g144
g575
tp664
sg20
g449
sg83
I01
sbag11
aa(lp665
g11
ag11
ag11
ag661
aasS'R'
p666
g7
(g50
g9
Ntp667
Rp668
(dp669
g15
(lp670
sg17
I6558424597636530343
sg18
Nsg19
(g7
(g84
g9
Ntp671
Rp672
(dp673
g13
I1
sg14
I-12
sg15
(lp674
sg17
I-6250432103414643165
sg18
Nsg19
(tsg20
(dp675
g34
I01
sg70
I01
sg36
I01
sg27
I01
sg22
I01
sg124
I00
sg23
I00
sg91
I00
sg31
I01
sg125
I01
sg126
I00
sg127
I00
sg92
I00
sg93
I00
sg39
I01
sg94
I01
sg73
I00
sg95
I01
sg41
I00
sg96
I01
sg98
I00
ssbg7
(g55
g9
Ntp676
Rp677
(dp678
g15
(lp679
sg18
Nsg19
(g62
g267
tp680
sg20
(dp681
g102
I00
ssg83
I01
sg17
I-8992361617277241012
sbtp682
sg20
g449
sg83
I01
sbsS'CS'
p683
(lp684
(lp685
(lp686
g7
(g50
g9
Ntp687
Rp688
(dp689
g15
(lp690
sg17
I897613649314958087
sg18
Nsg19
(g223
g57
g7
(g55
g9
Ntp691
Rp692
(dp693
g15
(lp694
sg18
Nsg19
(g110
g144
tp695
sg20
(dp696
g102
I00
ssg83
I01
sg17
I-6257445575032252761
sbg156
g7
(g55
g9
Ntp697
Rp698
(dp699
g15
(lp700
sg18
Nsg19
(g7
(g150
g9
Ntp701
Rp702
(dp703
g15
(lp704
sg17
I-3848086337792554888
sg18
Nsg19
(g321
g7
(g50
g9
Ntp705
Rp706
(dp707
g15
(lp708
sg17
I-6149801226633205198
sg18
Nsg19
(g267
g180
g156
tp709
sg20
(dp710
g101
I01
sg41
I00
sg102
I00
sg31
I01
sg27
I01
ssg83
I01
sbg338
tp711
sg20
(dp712
g101
I01
sg102
I00
sg27
I01
sg73
Nsg167
Nsg191
Nsg31
I01
sg41
I00
ssg83
I01
sbg175
tp713
sg20
(dp714
g102
I00
ssg83
I01
sg17
I9159134933499225682
sbg7
(g150
g9
Ntp715
Rp716
(dp717
g15
(lp718
sg17
I-4443071021623208559
sg18
Nsg19
(g7
(g50
g9
Ntp719
Rp720
(dp721
g15
(lp722
sg17
I-5816302797285599691
sg18
Nsg19
(g7
(g84
g9
Ntp723
Rp724
(dp725
g13
I1
sg14
I5
sg15
(lp726
sg17
I6250428319823841758
sg18
Nsg19
(tsg20
(dp727
g34
I01
sg70
I01
sg36
I01
sg27
I01
sg72
I00
sg23
I00
sg91
I00
sg31
I01
sg43
I01
sg92
I00
sg93
I00
sg39
I01
sg74
I00
sg94
I01
sg73
I01
sg95
I01
sg41
I00
sg96
I01
sg98
I00
ssbg180
tp728
sg20
(dp729
g69
I01
sg70
I01
sg102
I00
sg71
I01
sg72
I00
sg73
I01
sg74
I00
sg43
I01
sg75
I00
sg31
I01
sg118
Nsg168
Nsg76
I00
ssg83
I01
sbg263
tp730
sg20
(dp731
g101
I01
sg102
I00
sg27
I01
sg73
Nsg167
Nsg191
Nsg31
I01
sg41
I00
ssg83
I01
sbtp732
sg20
g449
sg83
I01
sbag11
ag11
ag11
aa(lp733
g11
ag7
(g50
g9
Ntp734
Rp735
(dp736
g15
(lp737
sg17
I-2468854012262051737
sg18
Nsg19
(g223
g57
g692
g131
g259
tp738
sg20
g449
sg83
I01
sbag11
ag11
aa(lp739
g11
ag11
ag7
(g50
g9
Ntp740
Rp741
(dp742
g15
(lp743
sg17
I-8041481826406689355
sg18
Nsg19
(g57
g692
tp744
sg20
g449
sg83
I01
sbag11
aa(lp745
g11
ag11
ag11
ag741
aaa(lp746
(lp747
g11
ag7
(g50
g9
Ntp748
Rp749
(dp750
g15
(lp751
sg17
I-4168821925134388757
sg18
Nsg19
(g223
g57
g692
g131
g239
tp752
sg20
g449
sg83
I01
sbag11
ag11
aa(lp753
g749
ag11
ag11
ag11
aa(lp754
g11
ag11
ag11
ag11
aa(lp755
g11
ag11
ag11
ag11
aaa(lp756
(lp757
g11
ag11
ag7
(g50
g9
Ntp758
Rp759
(dp760
g15
(lp761
sg17
I-4206403436951336535
sg18
Nsg19
(g175
g57
g692
tp762
sg20
g449
sg83
I01
sbag11
aa(lp763
g11
ag11
ag11
ag11
aa(lp764
g759
ag11
ag11
ag11
aa(lp765
g11
ag11
ag11
ag11
aaa(lp766
(lp767
g11
ag11
ag11
ag759
aa(lp768
g11
ag11
ag11
ag11
aa(lp769
g11
ag11
ag11
ag11
aa(lp770
g759
ag11
ag11
ag11
aaasS'x'
p771
(lp772
g110
ag7
(g60
g9
Ntp773
Rp774
(dp775
g15
(lp776
sg65
S't'
p777
sg18
Nsg19
(tsg20
(dp778
g80
I00
ssg83
I01
sg17
I4904675791785725879
sbag7
(g60
g9
Ntp779
Rp780
(dp781
g15
(lp782
sg65
S'x1'
p783
sg18
Nsg19
(tsg20
g778
sg83
I01
sg17
I-4415447792105516003
sbag7
(g60
g9
Ntp784
Rp785
(dp786
g15
(lp787
sg65
S'x2'
p788
sg18
Nsg19
(tsg20
g778
sg83
I01
sg17
I-4415447792106681052
sbasS'ginv'
p789
g7
(g562
g9
Ntp790
Rp791
(dp792
g566
I4
sg567
I4
sg568
(lp793
g7
(g50
g9
Ntp794
Rp795
(dp796
g15
(lp797
sg17
I-6509026232885556174
sg18
Nsg19
(g677
g7
(g55
g9
Ntp798
Rp799
(dp800
g15
(lp801
sg18
Nsg19
(g110
g86
tp802
sg20
(dp803
sg83
I01
sg17
I5144576987403360230
sbg585
tp804
sg20
g449
sg83
I01
sbag11
ag11
ag11
ag11
ag7
(g50
g9
Ntp805
Rp806
(dp807
g15
(lp808
sg17
I7884012598593548828
sg18
Nsg19
(g677
g799
g7
(g55
g9
Ntp809
Rp810
(dp811
g15
(lp812
sg18
Nsg19
(g624
g175
tp813
sg20
g803
sg83
I01
sg17
I-4671888024995763710
sbtp814
sg20
g449
sg83
I01
sbag11
ag11
ag11
ag11
ag7
(g50
g9
Ntp815
Rp816
(dp817
g15
(lp818
sg17
I8109490736424237978
sg18
Nsg19
(g677
g799
tp819
sg20
g449
sg83
I01
sbag11
ag11
ag11
ag11
ag816
asbsb.